target datalayout = "e-m:e-p270:32:32-p271:32:32-p272:64:64-i64:64-i128:128-f80:128-n8:16:32:64-S128"
target triple = "x86_64-pc-linux-gnu"

%struct.slurm_conf_t = type { i64, ptr, i16, ptr, ptr, ptr, ptr, ptr, i16, ptr, ptr, ptr, ptr, ptr, ptr, ptr, i16, ptr, ptr, ptr, ptr, i16, ptr, ptr, ptr, i64, ptr, ptr, ptr, ptr, i16, ptr, ptr, i16, i32, ptr, i32, ptr, i32, i32, ptr, ptr, i64, i64, ptr, i16, i16, ptr, i32, i32, ptr, i32, ptr, i32, i16, i16, i16, ptr, i16, i16, ptr, ptr, i32, i16, i16, ptr, i32, i16, ptr, ptr, ptr, ptr, i16, ptr, ptr, ptr, ptr, i32, ptr, ptr, ptr, ptr, i16, i16, ptr, i32, i32, i32, i16, i16, ptr, ptr, i16, ptr, ptr, i32, i32, i32, i32, i32, i64, i32, i32, i16, ptr, ptr, i32, ptr, ptr, ptr, i16, i32, ptr, ptr, i16, ptr, ptr, i32, i16, ptr, ptr, ptr, ptr, i32, i32, i16, i16, i32, ptr, i16, ptr, i32, i32, i32, i32, i32, i32, ptr, i16, ptr, ptr, i32, i16, ptr, i32, i16, i16, ptr, ptr, ptr, i16, ptr, ptr, ptr, ptr, i16, i16, ptr, i16, ptr, i16, ptr, i16, ptr, i16, ptr, ptr, ptr, ptr, i16, ptr, ptr, ptr, i32, ptr, i32, ptr, ptr, i16, ptr, ptr, i32, i16, ptr, ptr, i16, i16, ptr, i16, ptr, ptr, ptr, i32, ptr, i16, i16, ptr, ptr, ptr, ptr, ptr, ptr, ptr, ptr, i16, i32, i16, ptr, ptr, ptr, ptr, i32, ptr, ptr, ptr, i16, ptr, ptr, ptr, i16, ptr, i16, ptr, i16, i16, ptr }
%struct.http_context_t = type { i32, ptr, ptr, ptr, ptr, ptr }
%struct.send_http_response_args_t = type { ptr, i16, i16, i32, ptr, ptr, i64, ptr }
%struct.request_t = type { i32, ptr, ptr, ptr, ptr, i32, i8, i32, ptr, ptr, i64, i64, ptr, ptr, ptr }
%struct.http_parser = type { i32, i32, i64, i16, i16, i32, ptr }

@slurm_conf = external global %struct.slurm_conf_t, align 8
@DEFAULT_KEEP_ALIVE = internal global i32 5, align 4
@.str.41 = private unnamed_addr constant [34 x i8] c"NET: %s: [%s] HTTP/1.0 connection\00", align 1
@__func__._on_headers_complete = private unnamed_addr constant [21 x i8] c"_on_headers_complete\00", align 1
@.str.42 = private unnamed_addr constant [34 x i8] c"NET: %s: [%s] HTTP/1.1 connection\00", align 1
@.str.43 = private unnamed_addr constant [32 x i8] c"%s: [%s] unsupported HTTP/%d.%d\00", align 1

; Function Attrs: nounwind uwtable
define internal i32 @_on_headers_complete(ptr noundef %0) #0 {
  %2 = alloca i32, align 4
  %3 = alloca ptr, align 8
  %4 = alloca ptr, align 8
  %5 = alloca i32, align 4
  %6 = alloca %struct.send_http_response_args_t, align 8
  store ptr %0, ptr %3, align 8
  call void @llvm.lifetime.start.p0(i64 8, ptr %4) #8
  %7 = load ptr, ptr %3, align 8
  %8 = getelementptr inbounds nuw %struct.http_parser, ptr %7, i32 0, i32 6
  %9 = load ptr, ptr %8, align 8
  store ptr %9, ptr %4, align 8
  %10 = load ptr, ptr %3, align 8
  %11 = getelementptr inbounds nuw %struct.http_parser, ptr %10, i32 0, i32 3
  %12 = load i16, ptr %11, align 8
  %13 = zext i16 %12 to i32
  %14 = icmp eq i32 %13, 1
  br i1 %14, label %15, label %51

15:                                               ; preds = %1
  %16 = load ptr, ptr %3, align 8
  %17 = getelementptr inbounds nuw %struct.http_parser, ptr %16, i32 0, i32 4
  %18 = load i16, ptr %17, align 2
  %19 = zext i16 %18 to i32
  %20 = icmp eq i32 %19, 0
  br i1 %20, label %21, label %51

21:                                               ; preds = %15
  br label %22

22:                                               ; preds = %21
  %23 = load i64, ptr getelementptr inbounds nuw (%struct.slurm_conf_t, ptr @slurm_conf, i32 0, i32 42), align 8
  %24 = and i64 %23, 1024
  %25 = icmp ne i64 %24, 0
  br i1 %25, label %26, label %40

26:                                               ; preds = %22
  br label %27

27:                                               ; preds = %26
  %28 = call i32 @get_log_level()
  %29 = icmp sge i32 %28, 4
  br i1 %29, label %30, label %37

30:                                               ; preds = %27
  %31 = load ptr, ptr %4, align 8
  %32 = getelementptr inbounds nuw %struct.request_t, ptr %31, i32 0, i32 8
  %33 = load ptr, ptr %32, align 8
  %34 = getelementptr inbounds nuw %struct.http_context_t, ptr %33, i32 0, i32 1
  %35 = load ptr, ptr %34, align 8
  %36 = call ptr @conmgr_fd_get_name(ptr noundef %35)
  call void (i32, ptr, ...) @log_var(i32 noundef 4, ptr noundef @.str.41, ptr noundef @__func__._on_headers_complete, ptr noundef %36)
  br label %37

37:                                               ; preds = %30, %27
  br label %38

38:                                               ; preds = %37
  br label %39

39:                                               ; preds = %38
  br label %40

40:                                               ; preds = %39, %22
  br label %41

41:                                               ; preds = %40
  br label %42

42:                                               ; preds = %41
  %43 = load ptr, ptr %4, align 8
  %44 = getelementptr inbounds nuw %struct.request_t, ptr %43, i32 0, i32 5
  %45 = load i32, ptr %44, align 8
  %46 = icmp ne i32 %45, 0
  br i1 %46, label %50, label %47

47:                                               ; preds = %42
  %48 = load ptr, ptr %4, align 8
  %49 = getelementptr inbounds nuw %struct.request_t, ptr %48, i32 0, i32 6
  store i8 1, ptr %49, align 4
  br label %50

50:                                               ; preds = %47, %42
  br label %111

51:                                               ; preds = %15, %1
  %52 = load ptr, ptr %3, align 8
  %53 = getelementptr inbounds nuw %struct.http_parser, ptr %52, i32 0, i32 3
  %54 = load i16, ptr %53, align 8
  %55 = zext i16 %54 to i32
  %56 = icmp eq i32 %55, 1
  br i1 %56, label %57, label %94

57:                                               ; preds = %51
  %58 = load ptr, ptr %3, align 8
  %59 = getelementptr inbounds nuw %struct.http_parser, ptr %58, i32 0, i32 4
  %60 = load i16, ptr %59, align 2
  %61 = zext i16 %60 to i32
  %62 = icmp eq i32 %61, 1
  br i1 %62, label %63, label %94

63:                                               ; preds = %57
  br label %64

64:                                               ; preds = %63
  %65 = load i64, ptr getelementptr inbounds nuw (%struct.slurm_conf_t, ptr @slurm_conf, i32 0, i32 42), align 8
  %66 = and i64 %65, 1024
  %67 = icmp ne i64 %66, 0
  br i1 %67, label %68, label %82

68:                                               ; preds = %64
  br label %69

69:                                               ; preds = %68
  %70 = call i32 @get_log_level()
  %71 = icmp sge i32 %70, 4
  br i1 %71, label %72, label %79

72:                                               ; preds = %69
  %73 = load ptr, ptr %4, align 8
  %74 = getelementptr inbounds nuw %struct.request_t, ptr %73, i32 0, i32 8
  %75 = load ptr, ptr %74, align 8
  %76 = getelementptr inbounds nuw %struct.http_context_t, ptr %75, i32 0, i32 1
  %77 = load ptr, ptr %76, align 8
  %78 = call ptr @conmgr_fd_get_name(ptr noundef %77)
  call void (i32, ptr, ...) @log_var(i32 noundef 4, ptr noundef @.str.42, ptr noundef @__func__._on_headers_complete, ptr noundef %78)
  br label %79

79:                                               ; preds = %72, %69
  br label %80

80:                                               ; preds = %79
  br label %81

81:                                               ; preds = %80
  br label %82

82:                                               ; preds = %81, %64
  br label %83

83:                                               ; preds = %82
  br label %84

84:                                               ; preds = %83
  %85 = load ptr, ptr %4, align 8
  %86 = getelementptr inbounds nuw %struct.request_t, ptr %85, i32 0, i32 5
  %87 = load i32, ptr %86, align 8
  %88 = icmp eq i32 %87, -1
  br i1 %88, label %89, label %93

89:                                               ; preds = %84
  %90 = load i32, ptr @DEFAULT_KEEP_ALIVE, align 4
  %91 = load ptr, ptr %4, align 8
  %92 = getelementptr inbounds nuw %struct.request_t, ptr %91, i32 0, i32 5
  store i32 %90, ptr %92, align 8
  br label %93

93:                                               ; preds = %89, %84
  br label %110

94:                                               ; preds = %57, %51
  %95 = load ptr, ptr %4, align 8
  %96 = getelementptr inbounds nuw %struct.request_t, ptr %95, i32 0, i32 8
  %97 = load ptr, ptr %96, align 8
  %98 = getelementptr inbounds nuw %struct.http_context_t, ptr %97, i32 0, i32 1
  %99 = load ptr, ptr %98, align 8
  %100 = call ptr @conmgr_fd_get_name(ptr noundef %99)
  %101 = load ptr, ptr %3, align 8
  %102 = getelementptr inbounds nuw %struct.http_parser, ptr %101, i32 0, i32 3
  %103 = load i16, ptr %102, align 8
  %104 = zext i16 %103 to i32
  %105 = load ptr, ptr %3, align 8
  %106 = getelementptr inbounds nuw %struct.http_parser, ptr %105, i32 0, i32 4
  %107 = load i16, ptr %106, align 2
  %108 = zext i16 %107 to i32
  %109 = call i32 (ptr, ...) @error(ptr noundef @.str.43, ptr noundef @__func__._on_headers_complete, ptr noundef %100, i32 noundef %104, i32 noundef %108)
  store i32 10, ptr %2, align 4
  store i32 1, ptr %5, align 4
  br label %181

110:                                              ; preds = %93
  br label %111

111:                                              ; preds = %110, %50
  %112 = load ptr, ptr %3, align 8
  %113 = getelementptr inbounds nuw %struct.http_parser, ptr %112, i32 0, i32 3
  %114 = load i16, ptr %113, align 8
  %115 = zext i16 %114 to i32
  %116 = icmp eq i32 %115, 1
  br i1 %116, label %117, label %123

117:                                              ; preds = %111
  %118 = load ptr, ptr %3, align 8
  %119 = getelementptr inbounds nuw %struct.http_parser, ptr %118, i32 0, i32 4
  %120 = load i16, ptr %119, align 2
  %121 = zext i16 %120 to i32
  %122 = icmp sge i32 %121, 1
  br i1 %122, label %129, label %123

123:                                              ; preds = %117, %111
  %124 = load ptr, ptr %3, align 8
  %125 = getelementptr inbounds nuw %struct.http_parser, ptr %124, i32 0, i32 3
  %126 = load i16, ptr %125, align 8
  %127 = zext i16 %126 to i32
  %128 = icmp sgt i32 %127, 1
  br i1 %128, label %129, label %180

129:                                              ; preds = %123, %117
  %130 = load ptr, ptr %3, align 8
  %131 = getelementptr inbounds nuw %struct.http_parser, ptr %130, i32 0, i32 5
  %132 = load i32, ptr %131, align 4
  %133 = lshr i32 %132, 16
  %134 = and i32 %133, 255
  %135 = icmp eq i32 %134, 2
  br i1 %135, label %136, label %144

136:                                              ; preds = %129
  %137 = load ptr, ptr %4, align 8
  %138 = getelementptr inbounds nuw %struct.request_t, ptr %137, i32 0, i32 10
  %139 = load i64, ptr %138, align 8
  %140 = icmp ule i64 %139, 0
  br i1 %140, label %141, label %144

141:                                              ; preds = %136
  %142 = load ptr, ptr %3, align 8
  %143 = call i32 @_send_reject(ptr noundef %142, i32 noundef 411)
  store i32 10, ptr %2, align 4
  store i32 1, ptr %5, align 4
  br label %181

144:                                              ; preds = %136, %129
  %145 = load ptr, ptr %4, align 8
  %146 = getelementptr inbounds nuw %struct.request_t, ptr %145, i32 0, i32 7
  %147 = load i32, ptr %146, align 8
  %148 = icmp ne i32 %147, 0
  br i1 %148, label %149, label %179

149:                                              ; preds = %144
  call void @llvm.lifetime.start.p0(i64 48, ptr %6) #8
  %150 = getelementptr inbounds nuw %struct.send_http_response_args_t, ptr %6, i32 0, i32 0
  %151 = load ptr, ptr %4, align 8
  %152 = getelementptr inbounds nuw %struct.request_t, ptr %151, i32 0, i32 8
  %153 = load ptr, ptr %152, align 8
  %154 = getelementptr inbounds nuw %struct.http_context_t, ptr %153, i32 0, i32 1
  %155 = load ptr, ptr %154, align 8
  store ptr %155, ptr %150, align 8
  %156 = getelementptr inbounds nuw %struct.send_http_response_args_t, ptr %6, i32 0, i32 1
  %157 = load ptr, ptr %3, align 8
  %158 = getelementptr inbounds nuw %struct.http_parser, ptr %157, i32 0, i32 3
  %159 = load i16, ptr %158, align 8
  store i16 %159, ptr %156, align 8
  %160 = getelementptr inbounds nuw %struct.send_http_response_args_t, ptr %6, i32 0, i32 2
  %161 = load ptr, ptr %3, align 8
  %162 = getelementptr inbounds nuw %struct.http_parser, ptr %161, i32 0, i32 4
  %163 = load i16, ptr %162, align 2
  store i16 %163, ptr %160, align 2
  %164 = getelementptr inbounds nuw %struct.send_http_response_args_t, ptr %6, i32 0, i32 3
  %165 = load ptr, ptr %4, align 8
  %166 = getelementptr inbounds nuw %struct.request_t, ptr %165, i32 0, i32 7
  %167 = load i32, ptr %166, align 8
  store i32 %167, ptr %164, align 4
  %168 = getelementptr inbounds nuw %struct.send_http_response_args_t, ptr %6, i32 0, i32 4
  store ptr null, ptr %168, align 8
  %169 = getelementptr inbounds nuw %struct.send_http_response_args_t, ptr %6, i32 0, i32 5
  store ptr null, ptr %169, align 8
  %170 = getelementptr inbounds nuw %struct.send_http_response_args_t, ptr %6, i32 0, i32 6
  store i64 0, ptr %170, align 8
  %171 = getelementptr inbounds nuw %struct.send_http_response_args_t, ptr %6, i32 0, i32 7
  store ptr null, ptr %171, align 8
  %172 = call i32 @send_http_response(ptr noundef %6)
  %173 = icmp ne i32 %172, 0
  br i1 %173, label %174, label %175

174:                                              ; preds = %149
  store i32 10, ptr %2, align 4
  store i32 1, ptr %5, align 4
  br label %176

175:                                              ; preds = %149
  store i32 0, ptr %5, align 4
  br label %176

176:                                              ; preds = %175, %174
  call void @llvm.lifetime.end.p0(i64 48, ptr %6) #8
  %177 = load i32, ptr %5, align 4
  switch i32 %177, label %181 [
    i32 0, label %178
  ]

178:                                              ; preds = %176
  br label %179

179:                                              ; preds = %178, %144
  br label %180

180:                                              ; preds = %179, %123
  store i32 0, ptr %2, align 4
  store i32 1, ptr %5, align 4
  br label %181

181:                                              ; preds = %180, %176, %141, %94
  call void @llvm.lifetime.end.p0(i64 8, ptr %4) #8
  %182 = load i32, ptr %2, align 4
  ret i32 %182
}