; Function Attrs: nounwind uwtable
define internal range(i32 0, 11) i32 @_on_headers_complete(ptr noundef readonly captures(none) %0) #0 {
  %2 = alloca %struct.send_http_response_args_t, align 8
  %3 = getelementptr inbounds nuw i8, ptr %0, i64 24
  %4 = load ptr, ptr %3, align 8
  %5 = getelementptr inbounds nuw i8, ptr %0, i64 16
  %6 = load i16, ptr %5, align 8
  %7 = icmp eq i16 %6, 1
  br i1 %7, label %8, label %45

8:                                                ; preds = %1
  %9 = getelementptr inbounds nuw i8, ptr %0, i64 18
  %10 = load i16, ptr %9, align 2
  switch i16 %10, label %45 [
    i16 0, label %11
    i16 1, label %28
  ]

11:                                               ; preds = %8
  %12 = load i64, ptr getelementptr inbounds nuw (i8, ptr @slurm_conf, i64 320), align 8
  %13 = and i64 %12, 1024
  %.not27 = icmp eq i64 %13, 0
  br i1 %.not27, label %23, label %14

14:                                               ; preds = %11
  %15 = tail call i32 @get_log_level() #8
  %16 = icmp sgt i32 %15, 3
  br i1 %16, label %17, label %23

17:                                               ; preds = %14
  %18 = getelementptr inbounds nuw i8, ptr %4, i64 56
  %19 = load ptr, ptr %18, align 8
  %20 = getelementptr inbounds nuw i8, ptr %19, i64 8
  %21 = load ptr, ptr %20, align 8
  %22 = tail call ptr @conmgr_fd_get_name(ptr noundef %21) #8
  tail call void (i32, ptr, ...) @log_var(i32 noundef 4, ptr noundef nonnull @.str.41, ptr noundef nonnull @__func__._on_headers_complete, ptr noundef %22) #8
  br label %23

23:                                               ; preds = %14, %17, %11
  %24 = getelementptr inbounds nuw i8, ptr %4, i64 40
  %25 = load i32, ptr %24, align 8
  %.not28 = icmp eq i32 %25, 0
  br i1 %.not28, label %26, label %57

26:                                               ; preds = %23
  %27 = getelementptr inbounds nuw i8, ptr %4, i64 44
  store i8 1, ptr %27, align 4
  br label %57

28:                                               ; preds = %8
  %29 = load i64, ptr getelementptr inbounds nuw (i8, ptr @slurm_conf, i64 320), align 8
  %30 = and i64 %29, 1024
  %.not = icmp eq i64 %30, 0
  br i1 %.not, label %40, label %31

31:                                               ; preds = %28
  %32 = tail call i32 @get_log_level() #8
  %33 = icmp sgt i32 %32, 3
  br i1 %33, label %34, label %40

34:                                               ; preds = %31
  %35 = getelementptr inbounds nuw i8, ptr %4, i64 56
  %36 = load ptr, ptr %35, align 8
  %37 = getelementptr inbounds nuw i8, ptr %36, i64 8
  %38 = load ptr, ptr %37, align 8
  %39 = tail call ptr @conmgr_fd_get_name(ptr noundef %38) #8
  tail call void (i32, ptr, ...) @log_var(i32 noundef 4, ptr noundef nonnull @.str.42, ptr noundef nonnull @__func__._on_headers_complete, ptr noundef %39) #8
  br label %40

40:                                               ; preds = %31, %34, %28
  %41 = getelementptr inbounds nuw i8, ptr %4, i64 40
  %42 = load i32, ptr %41, align 8
  %43 = icmp eq i32 %42, -1
  br i1 %43, label %44, label %57

44:                                               ; preds = %40
  store i32 5, ptr %41, align 8
  br label %57

45:                                               ; preds = %8, %1
  %46 = getelementptr inbounds nuw i8, ptr %4, i64 56
  %47 = load ptr, ptr %46, align 8
  %48 = getelementptr inbounds nuw i8, ptr %47, i64 8
  %49 = load ptr, ptr %48, align 8
  %50 = tail call ptr @conmgr_fd_get_name(ptr noundef %49) #8
  %51 = load i16, ptr %5, align 8
  %52 = zext i16 %51 to i32
  %53 = getelementptr inbounds nuw i8, ptr %0, i64 18
  %54 = load i16, ptr %53, align 2
  %55 = zext i16 %54 to i32
  %56 = tail call i32 (ptr, ...) @error(ptr noundef nonnull @.str.43, ptr noundef nonnull @__func__._on_headers_complete, ptr noundef %50, i32 noundef %52, i32 noundef %55) #8
  br label %85

57:                                               ; preds = %44, %40, %23, %26
  %58 = load i16, ptr %5, align 8
  switch i16 %58, label %61 [
    i16 1, label %59
    i16 0, label %.thread32
  ]

59:                                               ; preds = %57
  %60 = load i16, ptr %9, align 2
  %.not29 = icmp eq i16 %60, 0
  br i1 %.not29, label %.thread32, label %61

61:                                               ; preds = %57, %59
  %62 = getelementptr inbounds nuw i8, ptr %0, i64 20
  %63 = load i32, ptr %62, align 4
  %64 = and i32 %63, 16711680
  %65 = icmp eq i32 %64, 131072
  br i1 %65, label %66, label %71

66:                                               ; preds = %61
  %67 = getelementptr inbounds nuw i8, ptr %4, i64 72
  %68 = load i64, ptr %67, align 8
  %69 = icmp eq i64 %68, 0
  br i1 %69, label %70, label %71

70:                                               ; preds = %66
  tail call fastcc void @_send_reject(ptr noundef nonnull %0, i32 noundef 411)
  br label %85

71:                                               ; preds = %66, %61
  %72 = getelementptr inbounds nuw i8, ptr %4, i64 48
  %73 = load i32, ptr %72, align 8
  %.not30 = icmp eq i32 %73, 0
  br i1 %.not30, label %.thread32, label %74

74:                                               ; preds = %71
  call void @llvm.lifetime.start.p0(i64 48, ptr nonnull %2) #8
  %75 = getelementptr inbounds nuw i8, ptr %4, i64 56
  %76 = load ptr, ptr %75, align 8
  %77 = getelementptr inbounds nuw i8, ptr %76, i64 8
  %78 = load ptr, ptr %77, align 8
  store ptr %78, ptr %2, align 8
  %79 = getelementptr inbounds nuw i8, ptr %2, i64 8
  store i16 %58, ptr %79, align 8
  %80 = getelementptr inbounds nuw i8, ptr %2, i64 10
  %81 = load i16, ptr %9, align 2
  store i16 %81, ptr %80, align 2
  %82 = getelementptr inbounds nuw i8, ptr %2, i64 12
  store i32 %73, ptr %82, align 4
  %83 = getelementptr inbounds nuw i8, ptr %2, i64 16
  call void @llvm.memset.p0.i64(ptr noundef nonnull align 8 dereferenceable(32) %83, i8 0, i64 32, i1 false)
  %84 = call i32 @send_http_response(ptr noundef nonnull %2)
  %.not31 = icmp eq i32 %84, 0
  call void @llvm.lifetime.end.p0(i64 48, ptr nonnull %2) #8
  br i1 %.not31, label %.thread32, label %85

.thread32:                                        ; preds = %57, %59, %71, %74
  br label %85

85:                                               ; preds = %74, %.thread32, %70, %45
  %.026 = phi i32 [ 10, %70 ], [ 0, %.thread32 ], [ 10, %74 ], [ 10, %45 ]
  ret i32 %.026
}